; Function Attrs: nounwind uwtable
define hidden void @zif_date_sub(ptr noundef %0, ptr nocapture noundef writeonly %1) #0 {
  %3 = alloca ptr, align 8
  %4 = alloca ptr, align 8
  %5 = getelementptr inbounds i8, ptr %0, i64 32
  %6 = getelementptr inbounds i8, ptr %0, i64 44
  %7 = load i32, ptr %6, align 4
  %8 = getelementptr inbounds i8, ptr %0, i64 40
  %9 = load i8, ptr %8, align 8
  %10 = icmp eq i8 %9, 8
  %11 = select i1 %10, ptr %5, ptr null
  %12 = load ptr, ptr @date_ce_date, align 8
  %13 = load ptr, ptr @date_ce_interval, align 8
  %14 = call i32 (i32, ptr, ptr, ...) @zend_parse_method_parameters(i32 noundef %7, ptr noundef %11, ptr noundef nonnull @.str.45, ptr noundef nonnull %3, ptr noundef %12, ptr noundef nonnull %4, ptr noundef %13) #25
  %15 = icmp eq i32 %14, -1
  br i1 %15, label %16, label %19

16:                                               ; preds = %2
  %17 = load ptr, ptr getelementptr inbounds (%struct._zend_executor_globals, ptr @executor_globals, i64 0, i32 50), align 8
  %18 = icmp ne ptr %17, null
  call void @llvm.assume(i1 %18)
  br label %27

19:                                               ; preds = %2
  %20 = load ptr, ptr %3, align 8
  %21 = load ptr, ptr %4, align 8
  %.val = load ptr, ptr %20, align 8
  call fastcc void @php_date_sub(ptr %.val, ptr noundef %21)
  %22 = load ptr, ptr %3, align 8
  %23 = load ptr, ptr %22, align 8
  %24 = load i32, ptr %23, align 4
  %25 = add i32 %24, 1
  store i32 %25, ptr %23, align 4
  store ptr %23, ptr %1, align 8
  %26 = getelementptr inbounds i8, ptr %1, i64 8
  store i32 776, ptr %26, align 8
  br label %27

27:                                               ; preds = %19, %16
  ret void
}